; ModuleID = 'source-C-CXX/8/150.c'
source_filename = "source-C-CXX/8/150.c"
target datalayout = "e-m:e-p270:32:32-p271:32:32-p272:64:64-i64:64-f80:128-n8:16:32:64-S128"
target triple = "x86_64-pc-linux-gnu"

@.str = private unnamed_addr constant [3 x i8] c"%d\00", align 1
@.str.1 = private unnamed_addr constant [5 x i8] c"%s%d\00", align 1

; Function Attrs: nofree nounwind sspstrong uwtable
define dso_local i32 @main() local_unnamed_addr #0 {
  %1 = alloca [100 x i32], align 16
  %2 = alloca [100 x [10 x i8]], align 16
  %3 = alloca [10 x i8], align 1
  %4 = alloca i32, align 4
  %5 = bitcast [100 x i32]* %1 to i8*
  call void @llvm.lifetime.start.p0i8(i64 400, i8* nonnull %5) #5
  %6 = getelementptr inbounds [100 x [10 x i8]], [100 x [10 x i8]]* %2, i64 0, i64 0, i64 0
  call void @llvm.lifetime.start.p0i8(i64 1000, i8* nonnull %6) #5
  %7 = getelementptr inbounds [10 x i8], [10 x i8]* %3, i64 0, i64 0
  call void @llvm.lifetime.start.p0i8(i64 10, i8* nonnull %7) #5
  %8 = bitcast i32* %4 to i8*
  call void @llvm.lifetime.start.p0i8(i64 4, i8* nonnull %8) #5
  %9 = call i32 (i8*, ...) @__isoc99_scanf(i8* getelementptr inbounds ([3 x i8], [3 x i8]* @.str, i64 0, i64 0), i32* nonnull %4)
  %10 = load i32, i32* %4, align 4, !tbaa !5
  %11 = icmp sgt i32 %10, 0
  br i1 %11, label %18, label %62

12:                                               ; preds = %18
  %13 = icmp slt i32 %24, 1
  br i1 %13, label %62, label %14

14:                                               ; preds = %12
  %15 = zext i32 %24 to i64
  %16 = add nuw i32 %24, 1
  %17 = zext i32 %16 to i64
  br label %27

18:                                               ; preds = %0, %18
  %19 = phi i64 [ %23, %18 ], [ 0, %0 ]
  %20 = getelementptr inbounds [100 x [10 x i8]], [100 x [10 x i8]]* %2, i64 0, i64 %19, i64 0
  %21 = getelementptr inbounds [100 x i32], [100 x i32]* %1, i64 0, i64 %19
  %22 = call i32 (i8*, ...) @__isoc99_scanf(i8* getelementptr inbounds ([5 x i8], [5 x i8]* @.str.1, i64 0, i64 0), i8* nonnull %20, i32* nonnull %21)
  %23 = add nuw nsw i64 %19, 1
  %24 = load i32, i32* %4, align 4, !tbaa !5
  %25 = sext i32 %24 to i64
  %26 = icmp slt i64 %23, %25
  br i1 %26, label %18, label %12, !llvm.loop !9

27:                                               ; preds = %14, %51
  %28 = phi i64 [ 1, %14 ], [ %52, %51 ]
  %29 = icmp ult i64 %28, %15
  br i1 %29, label %32, label %51

30:                                               ; preds = %51
  %31 = icmp sgt i32 %24, 0
  br i1 %31, label %54, label %62

32:                                               ; preds = %27, %49
  %33 = phi i64 [ %34, %49 ], [ %15, %27 ]
  %34 = add nsw i64 %33, -1
  %35 = getelementptr inbounds [100 x i32], [100 x i32]* %1, i64 0, i64 %34
  %36 = load i32, i32* %35, align 4, !tbaa !5
  %37 = add nsw i64 %33, -2
  %38 = getelementptr inbounds [100 x i32], [100 x i32]* %1, i64 0, i64 %37
  %39 = load i32, i32* %38, align 4, !tbaa !5
  %40 = icmp sgt i32 %36, %39
  %41 = icmp sgt i32 %36, 59
  %42 = and i1 %41, %40
  br i1 %42, label %43, label %49

43:                                               ; preds = %32
  store i32 %39, i32* %35, align 4, !tbaa !5
  store i32 %36, i32* %38, align 4, !tbaa !5
  %44 = getelementptr inbounds [100 x [10 x i8]], [100 x [10 x i8]]* %2, i64 0, i64 %34, i64 0
  %45 = call i8* @strcpy(i8* noundef nonnull %7, i8* noundef nonnull %44) #5
  %46 = getelementptr inbounds [100 x [10 x i8]], [100 x [10 x i8]]* %2, i64 0, i64 %37, i64 0
  %47 = call i8* @strcpy(i8* noundef nonnull %44, i8* noundef nonnull %46) #5
  %48 = call i8* @strcpy(i8* noundef nonnull %46, i8* noundef nonnull %7) #5
  br label %49

49:                                               ; preds = %32, %43
  %50 = icmp sgt i64 %34, %28
  br i1 %50, label %32, label %51, !llvm.loop !11

51:                                               ; preds = %49, %27
  %52 = add nuw nsw i64 %28, 1
  %53 = icmp eq i64 %52, %17
  br i1 %53, label %30, label %27, !llvm.loop !12

54:                                               ; preds = %30, %54
  %55 = phi i64 [ %58, %54 ], [ 0, %30 ]
  %56 = getelementptr inbounds [100 x [10 x i8]], [100 x [10 x i8]]* %2, i64 0, i64 %55, i64 0
  %57 = call i32 @puts(i8* nonnull %56)
  %58 = add nuw nsw i64 %55, 1
  %59 = load i32, i32* %4, align 4, !tbaa !5
  %60 = sext i32 %59 to i64
  %61 = icmp slt i64 %58, %60
  br i1 %61, label %54, label %62, !llvm.loop !13

62:                                               ; preds = %54, %0, %12, %30
  call void @llvm.lifetime.end.p0i8(i64 4, i8* nonnull %8) #5
  call void @llvm.lifetime.end.p0i8(i64 10, i8* nonnull %7) #5
  call void @llvm.lifetime.end.p0i8(i64 1000, i8* nonnull %6) #5
  call void @llvm.lifetime.end.p0i8(i64 400, i8* nonnull %5) #5
  ret i32 0
}

; Function Attrs: argmemonly mustprogress nofree nosync nounwind willreturn
declare void @llvm.lifetime.start.p0i8(i64 immarg, i8* nocapture) #1

; Function Attrs: nofree nounwind
declare noundef i32 @__isoc99_scanf(i8* nocapture noundef readonly, ...) local_unnamed_addr #2

; Function Attrs: argmemonly mustprogress nofree nounwind willreturn
declare i8* @strcpy(i8* noalias returned writeonly, i8* noalias nocapture readonly) local_unnamed_addr #3

; Function Attrs: argmemonly mustprogress nofree nosync nounwind willreturn
declare void @llvm.lifetime.end.p0i8(i64 immarg, i8* nocapture) #1

; Function Attrs: nofree nounwind
declare noundef i32 @puts(i8* nocapture noundef readonly) local_unnamed_addr #4


!llvm.module.flags = !{!0, !1, !2, !3}
!llvm.ident = !{!4}

!0 = !{i32 1, !"wchar_size", i32 4}
!1 = !{i32 7, !"PIC Level", i32 2}
!2 = !{i32 7, !"PIE Level", i32 2}
!3 = !{i32 7, !"uwtable", i32 1}
!4 = !{!"clang version 13.0.0"}
!5 = !{!6, !6, i64 0}
!6 = !{!"int", !7, i64 0}
!7 = !{!"omnipotent char", !8, i64 0}
!8 = !{!"Simple C/C++ TBAA"}
!9 = distinct !{!9, !10}
!10 = !{!"llvm.loop.mustprogress"}
!11 = distinct !{!11, !10}
!12 = distinct !{!12, !10}
!13 = distinct !{!13, !10}
